target datalayout = "e-m:e-p270:32:32-p271:32:32-p272:64:64-i64:64-i128:128-f80:128-n8:16:32:64-S128"
target triple = "x86_64-pc-linux-gnu"

%struct.SubscriptingRefState = type { i8, ptr, i32, ptr, ptr, ptr, i32, ptr, ptr, ptr, i64, i8, i64, i8 }
%struct.ArraySubWorkspace = type { i32, i16, i16, i8, i8, [6 x i32], [6 x i32] }
%struct.ExprEvalStep = type { i64, ptr, ptr, %union.anon }
%union.anon = type { %struct.anon.23 }
%struct.anon.23 = type { ptr, ptr, i32, i32, ptr, ptr }
%struct.anon.27 = type { ptr, ptr }

; Function Attrs: inlinehint nounwind uwtable
define internal i64 @PointerGetDatum(ptr noundef %0) #1 {
  %2 = alloca ptr, align 8
  store ptr %0, ptr %2, align 8
  %3 = load ptr, ptr %2, align 8
  %4 = ptrtoint ptr %3 to i64
  ret i64 %4
}

; Function Attrs: nounwind uwtable
define internal void @array_subscript_assign(ptr noundef %0, ptr noundef %1, ptr noundef %2) #0 {
  %4 = alloca ptr, align 8
  %5 = alloca ptr, align 8
  %6 = alloca ptr, align 8
  %7 = alloca ptr, align 8
  %8 = alloca ptr, align 8
  %9 = alloca i64, align 8
  %10 = alloca i32, align 4
  store ptr %0, ptr %4, align 8
  store ptr %1, ptr %5, align 8
  store ptr %2, ptr %6, align 8
  call void @llvm.lifetime.start.p0(i64 8, ptr %7) #6
  %11 = load ptr, ptr %5, align 8
  %12 = getelementptr inbounds nuw %struct.ExprEvalStep, ptr %11, i32 0, i32 3
  %13 = getelementptr inbounds nuw %struct.anon.27, ptr %12, i32 0, i32 1
  %14 = load ptr, ptr %13, align 8
  store ptr %14, ptr %7, align 8
  call void @llvm.lifetime.start.p0(i64 8, ptr %8) #6
  %15 = load ptr, ptr %7, align 8
  %16 = getelementptr inbounds nuw %struct.SubscriptingRefState, ptr %15, i32 0, i32 1
  %17 = load ptr, ptr %16, align 8
  store ptr %17, ptr %8, align 8
  call void @llvm.lifetime.start.p0(i64 8, ptr %9) #6
  %18 = load ptr, ptr %5, align 8
  %19 = getelementptr inbounds nuw %struct.ExprEvalStep, ptr %18, i32 0, i32 1
  %20 = load ptr, ptr %19, align 8
  %21 = load i64, ptr %20, align 8
  store i64 %21, ptr %9, align 8
  %22 = load ptr, ptr %8, align 8
  %23 = getelementptr inbounds nuw %struct.ArraySubWorkspace, ptr %22, i32 0, i32 1
  %24 = load i16, ptr %23, align 4
  %25 = sext i16 %24 to i32
  %26 = icmp sgt i32 %25, 0
  br i1 %26, label %27, label %40

27:                                               ; preds = %3
  %28 = load ptr, ptr %5, align 8
  %29 = getelementptr inbounds nuw %struct.ExprEvalStep, ptr %28, i32 0, i32 2
  %30 = load ptr, ptr %29, align 8
  %31 = load i8, ptr %30, align 1, !range !4, !noundef !5
  %32 = trunc i8 %31 to i1
  br i1 %32, label %38, label %33

33:                                               ; preds = %27
  %34 = load ptr, ptr %7, align 8
  %35 = getelementptr inbounds nuw %struct.SubscriptingRefState, ptr %34, i32 0, i32 11
  %36 = load i8, ptr %35, align 8, !range !4, !noundef !5
  %37 = trunc i8 %36 to i1
  br i1 %37, label %38, label %39

38:                                               ; preds = %33, %27
  store i32 1, ptr %10, align 4
  br label %89

39:                                               ; preds = %33
  br label %40

40:                                               ; preds = %39, %3
  %41 = load ptr, ptr %5, align 8
  %42 = getelementptr inbounds nuw %struct.ExprEvalStep, ptr %41, i32 0, i32 2
  %43 = load ptr, ptr %42, align 8
  %44 = load i8, ptr %43, align 1, !range !4, !noundef !5
  %45 = trunc i8 %44 to i1
  br i1 %45, label %46, label %55

46:                                               ; preds = %40
  %47 = load ptr, ptr %8, align 8
  %48 = getelementptr inbounds nuw %struct.ArraySubWorkspace, ptr %47, i32 0, i32 0
  %49 = load i32, ptr %48, align 4
  %50 = call ptr @construct_empty_array(i32 noundef %49)
  %51 = call i64 @PointerGetDatum(ptr noundef %50)
  store i64 %51, ptr %9, align 8
  %52 = load ptr, ptr %5, align 8
  %53 = getelementptr inbounds nuw %struct.ExprEvalStep, ptr %52, i32 0, i32 2
  %54 = load ptr, ptr %53, align 8
  store i8 0, ptr %54, align 1
  br label %55

55:                                               ; preds = %46, %40
  %56 = load i64, ptr %9, align 8
  %57 = load ptr, ptr %7, align 8
  %58 = getelementptr inbounds nuw %struct.SubscriptingRefState, ptr %57, i32 0, i32 2
  %59 = load i32, ptr %58, align 8
  %60 = load ptr, ptr %8, align 8
  %61 = getelementptr inbounds nuw %struct.ArraySubWorkspace, ptr %60, i32 0, i32 5
  %62 = getelementptr inbounds [6 x i32], ptr %61, i64 0, i64 0
  %63 = load ptr, ptr %7, align 8
  %64 = getelementptr inbounds nuw %struct.SubscriptingRefState, ptr %63, i32 0, i32 10
  %65 = load i64, ptr %64, align 8
  %66 = load ptr, ptr %7, align 8
  %67 = getelementptr inbounds nuw %struct.SubscriptingRefState, ptr %66, i32 0, i32 11
  %68 = load i8, ptr %67, align 8, !range !4, !noundef !5
  %69 = trunc i8 %68 to i1
  %70 = load ptr, ptr %8, align 8
  %71 = getelementptr inbounds nuw %struct.ArraySubWorkspace, ptr %70, i32 0, i32 1
  %72 = load i16, ptr %71, align 4
  %73 = sext i16 %72 to i32
  %74 = load ptr, ptr %8, align 8
  %75 = getelementptr inbounds nuw %struct.ArraySubWorkspace, ptr %74, i32 0, i32 2
  %76 = load i16, ptr %75, align 2
  %77 = sext i16 %76 to i32
  %78 = load ptr, ptr %8, align 8
  %79 = getelementptr inbounds nuw %struct.ArraySubWorkspace, ptr %78, i32 0, i32 3
  %80 = load i8, ptr %79, align 4, !range !4, !noundef !5
  %81 = trunc i8 %80 to i1
  %82 = load ptr, ptr %8, align 8
  %83 = getelementptr inbounds nuw %struct.ArraySubWorkspace, ptr %82, i32 0, i32 4
  %84 = load i8, ptr %83, align 1
  %85 = call i64 @array_set_element(i64 noundef %56, i32 noundef %59, ptr noundef %62, i64 noundef %65, i1 noundef zeroext %69, i32 noundef %73, i32 noundef %77, i1 noundef zeroext %81, i8 noundef signext %84)
  %86 = load ptr, ptr %5, align 8
  %87 = getelementptr inbounds nuw %struct.ExprEvalStep, ptr %86, i32 0, i32 1
  %88 = load ptr, ptr %87, align 8
  store i64 %85, ptr %88, align 8
  store i32 0, ptr %10, align 4
  br label %89

89:                                               ; preds = %55, %38
  call void @llvm.lifetime.end.p0(i64 8, ptr %9) #6
  call void @llvm.lifetime.end.p0(i64 8, ptr %8) #6
  call void @llvm.lifetime.end.p0(i64 8, ptr %7) #6
  %90 = load i32, ptr %10, align 4
  switch i32 %90, label %92 [
    i32 0, label %91
    i32 1, label %91
  ]

91:                                               ; preds = %89, %89
  ret void

92:                                               ; preds = %89
  unreachable
}