; Function Attrs: nounwind uwtable
define internal void @array_subscript_assign(ptr readnone captures(none) %0, ptr noundef readonly captures(none) %1, ptr readnone captures(none) %2) #1 {
  %4 = getelementptr inbounds nuw i8, ptr %1, i64 32
  %5 = load ptr, ptr %4, align 8
  %6 = getelementptr inbounds nuw i8, ptr %5, i64 8
  %7 = load ptr, ptr %6, align 8
  %8 = getelementptr inbounds nuw i8, ptr %1, i64 8
  %9 = load ptr, ptr %8, align 8
  %10 = load i64, ptr %9, align 8
  %11 = getelementptr inbounds nuw i8, ptr %7, i64 4
  %12 = load i16, ptr %11, align 4
  %13 = icmp sgt i16 %12, 0
  %14 = getelementptr inbounds nuw i8, ptr %1, i64 16
  %15 = load ptr, ptr %14, align 8
  %16 = load i8, ptr %15, align 1, !range !4
  %17 = trunc nuw i8 %16 to i1
  br i1 %13, label %18, label %23

18:                                               ; preds = %3
  br i1 %17, label %50, label %19

19:                                               ; preds = %18
  %20 = getelementptr inbounds nuw i8, ptr %5, i64 88
  %21 = load i8, ptr %20, align 8, !range !4, !noundef !5
  %22 = trunc nuw i8 %21 to i1
  br i1 %22, label %50, label %.thread

23:                                               ; preds = %3
  br i1 %17, label %24, label %.thread

24:                                               ; preds = %23
  %25 = getelementptr inbounds nuw i8, ptr %1, i64 16
  %26 = load i32, ptr %7, align 4
  %27 = tail call ptr @construct_empty_array(i32 noundef %26) #7
  %28 = ptrtoint ptr %27 to i64
  %29 = load ptr, ptr %25, align 8
  store i8 0, ptr %29, align 1
  %.pre19 = load i16, ptr %11, align 4
  br label %.thread

.thread:                                          ; preds = %19, %24, %23
  %30 = phi i16 [ %.pre19, %24 ], [ %12, %23 ], [ %12, %19 ]
  %.0 = phi i64 [ %28, %24 ], [ %10, %23 ], [ %10, %19 ]
  %31 = getelementptr inbounds nuw i8, ptr %5, i64 16
  %32 = load i32, ptr %31, align 8
  %33 = getelementptr inbounds nuw i8, ptr %7, i64 12
  %34 = getelementptr inbounds nuw i8, ptr %5, i64 80
  %35 = load i64, ptr %34, align 8
  %36 = getelementptr inbounds nuw i8, ptr %5, i64 88
  %37 = load i8, ptr %36, align 8, !range !4, !noundef !5
  %38 = trunc nuw i8 %37 to i1
  %39 = sext i16 %30 to i32
  %40 = getelementptr inbounds nuw i8, ptr %7, i64 6
  %41 = load i16, ptr %40, align 2
  %42 = sext i16 %41 to i32
  %43 = getelementptr inbounds nuw i8, ptr %7, i64 8
  %44 = load i8, ptr %43, align 4, !range !4, !noundef !5
  %45 = trunc nuw i8 %44 to i1
  %46 = getelementptr inbounds nuw i8, ptr %7, i64 9
  %47 = load i8, ptr %46, align 1
  %48 = tail call i64 @array_set_element(i64 noundef %.0, i32 noundef %32, ptr noundef nonnull %33, i64 noundef %35, i1 noundef zeroext %38, i32 noundef %39, i32 noundef %42, i1 noundef zeroext %45, i8 noundef signext %47) #7
  %49 = load ptr, ptr %8, align 8
  store i64 %48, ptr %49, align 8
  br label %50

50:                                               ; preds = %18, %19, %.thread
  ret void
}